target datalayout = "e-m:e-p270:32:32-p271:32:32-p272:64:64-i64:64-i128:128-f80:128-n8:16:32:64-S128"
target triple = "x86_64-pc-linux-gnu"

%struct.mbedtls_mpi = type { ptr, i16, i16 }

; Function Attrs: inlinehint nounwind uwtable
define internal i64 @mbedtls_ct_if(i64 noundef %0, i64 noundef %1, i64 noundef %2) #2 {
  %4 = alloca i64, align 8
  %5 = alloca i64, align 8
  %6 = alloca i64, align 8
  store i64 %0, ptr %4, align 8, !tbaa !15
  store i64 %1, ptr %5, align 8, !tbaa !15
  store i64 %2, ptr %6, align 8, !tbaa !15
  %7 = load i64, ptr %4, align 8, !tbaa !15
  %8 = load i64, ptr %5, align 8, !tbaa !15
  %9 = load i64, ptr %6, align 8, !tbaa !15
  %10 = call { i64, i64, i64 } asm sideeffect "and  $0, $1                      \0A\09not  $0                              \0A\09and  $0, $2                      \0A\09or   $1, $2                            \0A\09", "=&{di},=&{si},=&{ax},0,1,2,~{dirflag},~{fpsr},~{flags}"(i64 %7, i64 %8, i64 %9) #9, !srcloc !75
  %11 = extractvalue { i64, i64, i64 } %10, 0
  %12 = extractvalue { i64, i64, i64 } %10, 1
  %13 = extractvalue { i64, i64, i64 } %10, 2
  store i64 %11, ptr %4, align 8, !tbaa !15
  store i64 %12, ptr %5, align 8, !tbaa !15
  store i64 %13, ptr %6, align 8, !tbaa !15
  %14 = load i64, ptr %6, align 8, !tbaa !15
  ret i64 %14
}

; Function Attrs: inlinehint nounwind uwtable
define internal i32 @mbedtls_ct_uint_if(i64 noundef %0, i32 noundef %1, i32 noundef %2) #2 {
  %4 = alloca i64, align 8
  %5 = alloca i32, align 4
  %6 = alloca i32, align 4
  store i64 %0, ptr %4, align 8, !tbaa !15
  store i32 %1, ptr %5, align 4, !tbaa !19
  store i32 %2, ptr %6, align 4, !tbaa !19
  %7 = load i64, ptr %4, align 8, !tbaa !15
  %8 = load i32, ptr %5, align 4, !tbaa !19
  %9 = zext i32 %8 to i64
  %10 = load i32, ptr %6, align 4, !tbaa !19
  %11 = zext i32 %10 to i64
  %12 = call i64 @mbedtls_ct_if(i64 noundef %7, i64 noundef %9, i64 noundef %11)
  %13 = trunc i64 %12 to i32
  ret i32 %13
}

; Function Attrs: inlinehint nounwind uwtable
define internal i64 @mbedtls_ct_mpi_uint_if_else_0(i64 noundef %0, i64 noundef %1) #2 {
  %3 = alloca i64, align 8
  %4 = alloca i64, align 8
  store i64 %0, ptr %3, align 8, !tbaa !15
  store i64 %1, ptr %4, align 8, !tbaa !15
  %5 = load i64, ptr %3, align 8, !tbaa !15
  %6 = load i64, ptr %4, align 8, !tbaa !15
  %7 = and i64 %5, %6
  ret i64 %7
}

; Function Attrs: inlinehint nounwind uwtable
define internal i64 @mbedtls_ct_bool_not(i64 noundef %0) #2 {
  %2 = alloca i64, align 8
  store i64 %0, ptr %2, align 8, !tbaa !15
  %3 = load i64, ptr %2, align 8, !tbaa !15
  %4 = xor i64 %3, -1
  ret i64 %4
}

; Function Attrs: inlinehint nounwind uwtable
define internal signext i16 @mbedtls_ct_mpi_sign_if(i64 noundef %0, i16 noundef signext %1, i16 noundef signext %2) #2 {
  %4 = alloca i64, align 8
  %5 = alloca i16, align 2
  %6 = alloca i16, align 2
  store i64 %0, ptr %4, align 8, !tbaa !15
  store i16 %1, ptr %5, align 2, !tbaa !26
  store i16 %2, ptr %6, align 2, !tbaa !26
  %7 = load i64, ptr %4, align 8, !tbaa !15
  %8 = load i16, ptr %5, align 2, !tbaa !26
  %9 = sext i16 %8 to i32
  %10 = add nsw i32 %9, 1
  %11 = load i16, ptr %6, align 2, !tbaa !26
  %12 = sext i16 %11 to i32
  %13 = add nsw i32 %12, 1
  %14 = call i32 @mbedtls_ct_uint_if(i64 noundef %7, i32 noundef %10, i32 noundef %13)
  %15 = trunc i32 %14 to i16
  %16 = sext i16 %15 to i32
  %17 = sub nsw i32 %16, 1
  %18 = trunc i32 %17 to i16
  ret i16 %18
}

; Function Attrs: inlinehint nounwind uwtable
define internal i64 @mbedtls_ct_bool(i64 noundef %0) #2 {
  %2 = alloca i64, align 8
  %3 = alloca i64, align 8
  store i64 %0, ptr %2, align 8, !tbaa !15
  call void @llvm.lifetime.start.p0(i64 8, ptr %3) #9
  %4 = load i64, ptr %2, align 8, !tbaa !15
  %5 = call i64 asm sideeffect "mov  $1, $0                                \0A\09neg  $0                                      \0A\09or   $1, $0                                \0A\09sar  $$63, $0                                 \0A\09", "=&{ax},{di},~{dirflag},~{fpsr},~{flags}"(i64 %4) #9, !srcloc !21
  store i64 %5, ptr %3, align 8, !tbaa !15
  %6 = load i64, ptr %3, align 8, !tbaa !15
  call void @llvm.lifetime.end.p0(i64 8, ptr %3) #9
  ret i64 %6
}

; Function Attrs: nounwind uwtable
define hidden i32 @mbedtls_mpi_grow(ptr noundef %0, i64 noundef %1) #0 {
  %3 = alloca i32, align 4
  %4 = alloca ptr, align 8
  %5 = alloca i64, align 8
  %6 = alloca ptr, align 8
  %7 = alloca i32, align 4
  store ptr %0, ptr %4, align 8, !tbaa !3
  store i64 %1, ptr %5, align 8, !tbaa !15
  call void @llvm.lifetime.start.p0(i64 8, ptr %6) #9
  %8 = load i64, ptr %5, align 8, !tbaa !15
  %9 = icmp ugt i64 %8, 10000
  br i1 %9, label %10, label %11

10:                                               ; preds = %2
  store i32 -16, ptr %3, align 4
  store i32 1, ptr %7, align 4
  br label %55

11:                                               ; preds = %2
  %12 = load ptr, ptr %4, align 8, !tbaa !3
  %13 = getelementptr inbounds nuw %struct.mbedtls_mpi, ptr %12, i32 0, i32 2
  %14 = load i16, ptr %13, align 2, !tbaa !10
  %15 = zext i16 %14 to i64
  %16 = load i64, ptr %5, align 8, !tbaa !15
  %17 = icmp ult i64 %15, %16
  br i1 %17, label %18, label %54

18:                                               ; preds = %11
  %19 = load i64, ptr %5, align 8, !tbaa !15
  %20 = call noalias ptr @calloc(i64 noundef %19, i64 noundef 8) #10
  store ptr %20, ptr %6, align 8, !tbaa !25
  %21 = icmp eq ptr %20, null
  br i1 %21, label %22, label %23

22:                                               ; preds = %18
  store i32 -16, ptr %3, align 4
  store i32 1, ptr %7, align 4
  br label %55

23:                                               ; preds = %18
  %24 = load ptr, ptr %4, align 8, !tbaa !3
  %25 = getelementptr inbounds nuw %struct.mbedtls_mpi, ptr %24, i32 0, i32 0
  %26 = load ptr, ptr %25, align 8, !tbaa !17
  %27 = icmp ne ptr %26, null
  br i1 %27, label %28, label %46

28:                                               ; preds = %23
  %29 = load ptr, ptr %6, align 8, !tbaa !25
  %30 = load ptr, ptr %4, align 8, !tbaa !3
  %31 = getelementptr inbounds nuw %struct.mbedtls_mpi, ptr %30, i32 0, i32 0
  %32 = load ptr, ptr %31, align 8, !tbaa !17
  %33 = load ptr, ptr %4, align 8, !tbaa !3
  %34 = getelementptr inbounds nuw %struct.mbedtls_mpi, ptr %33, i32 0, i32 2
  %35 = load i16, ptr %34, align 2, !tbaa !10
  %36 = zext i16 %35 to i64
  %37 = mul i64 %36, 8
  call void @llvm.memcpy.p0.p0.i64(ptr align 8 %29, ptr align 8 %32, i64 %37, i1 false)
  %38 = load ptr, ptr %4, align 8, !tbaa !3
  %39 = getelementptr inbounds nuw %struct.mbedtls_mpi, ptr %38, i32 0, i32 0
  %40 = load ptr, ptr %39, align 8, !tbaa !17
  %41 = load ptr, ptr %4, align 8, !tbaa !3
  %42 = getelementptr inbounds nuw %struct.mbedtls_mpi, ptr %41, i32 0, i32 2
  %43 = load i16, ptr %42, align 2, !tbaa !10
  %44 = zext i16 %43 to i64
  %45 = mul i64 8, %44
  call void @mbedtls_zeroize_and_free(ptr noundef %40, i64 noundef %45)
  br label %46

46:                                               ; preds = %28, %23
  %47 = load i64, ptr %5, align 8, !tbaa !15
  %48 = trunc i64 %47 to i16
  %49 = load ptr, ptr %4, align 8, !tbaa !3
  %50 = getelementptr inbounds nuw %struct.mbedtls_mpi, ptr %49, i32 0, i32 2
  store i16 %48, ptr %50, align 2, !tbaa !10
  %51 = load ptr, ptr %6, align 8, !tbaa !25
  %52 = load ptr, ptr %4, align 8, !tbaa !3
  %53 = getelementptr inbounds nuw %struct.mbedtls_mpi, ptr %52, i32 0, i32 0
  store ptr %51, ptr %53, align 8, !tbaa !17
  br label %54

54:                                               ; preds = %46, %11
  store i32 0, ptr %3, align 4
  store i32 1, ptr %7, align 4
  br label %55

55:                                               ; preds = %54, %22, %10
  call void @llvm.lifetime.end.p0(i64 8, ptr %6) #9
  %56 = load i32, ptr %3, align 4
  ret i32 %56
}

; Function Attrs: nounwind uwtable
define hidden i32 @mbedtls_mpi_safe_cond_assign(ptr noundef %0, ptr noundef %1, i8 noundef zeroext %2) #0 {
  %4 = alloca ptr, align 8
  %5 = alloca ptr, align 8
  %6 = alloca i8, align 1
  %7 = alloca i32, align 4
  %8 = alloca i64, align 8
  %9 = alloca i64, align 8
  %10 = alloca i64, align 8
  store ptr %0, ptr %4, align 8, !tbaa !3
  store ptr %1, ptr %5, align 8, !tbaa !3
  store i8 %2, ptr %6, align 1, !tbaa !22
  call void @llvm.lifetime.start.p0(i64 4, ptr %7) #9
  store i32 0, ptr %7, align 4, !tbaa !19
  br label %11

11:                                               ; preds = %3
  %12 = load ptr, ptr %4, align 8, !tbaa !3
  %13 = load ptr, ptr %5, align 8, !tbaa !3
  %14 = getelementptr inbounds nuw %struct.mbedtls_mpi, ptr %13, i32 0, i32 2
  %15 = load i16, ptr %14, align 2, !tbaa !10
  %16 = zext i16 %15 to i64
  %17 = call i32 @mbedtls_mpi_grow(ptr noundef %12, i64 noundef %16)
  store i32 %17, ptr %7, align 4, !tbaa !19
  %18 = icmp ne i32 %17, 0
  br i1 %18, label %19, label %20

19:                                               ; preds = %11
  br label %79

20:                                               ; preds = %11
  br label %21

21:                                               ; preds = %20
  br label %22

22:                                               ; preds = %21
  call void @llvm.lifetime.start.p0(i64 8, ptr %8) #9
  %23 = load i8, ptr %6, align 1, !tbaa !22
  %24 = zext i8 %23 to i64
  %25 = call i64 @mbedtls_ct_bool(i64 noundef %24)
  store i64 %25, ptr %8, align 8, !tbaa !15
  %26 = load i64, ptr %8, align 8, !tbaa !15
  %27 = load ptr, ptr %5, align 8, !tbaa !3
  %28 = getelementptr inbounds nuw %struct.mbedtls_mpi, ptr %27, i32 0, i32 1
  %29 = load i16, ptr %28, align 8, !tbaa !14
  %30 = load ptr, ptr %4, align 8, !tbaa !3
  %31 = getelementptr inbounds nuw %struct.mbedtls_mpi, ptr %30, i32 0, i32 1
  %32 = load i16, ptr %31, align 8, !tbaa !14
  %33 = call signext i16 @mbedtls_ct_mpi_sign_if(i64 noundef %26, i16 noundef signext %29, i16 noundef signext %32)
  %34 = load ptr, ptr %4, align 8, !tbaa !3
  %35 = getelementptr inbounds nuw %struct.mbedtls_mpi, ptr %34, i32 0, i32 1
  store i16 %33, ptr %35, align 8, !tbaa !14
  %36 = load ptr, ptr %4, align 8, !tbaa !3
  %37 = getelementptr inbounds nuw %struct.mbedtls_mpi, ptr %36, i32 0, i32 0
  %38 = load ptr, ptr %37, align 8, !tbaa !17
  %39 = load ptr, ptr %5, align 8, !tbaa !3
  %40 = getelementptr inbounds nuw %struct.mbedtls_mpi, ptr %39, i32 0, i32 0
  %41 = load ptr, ptr %40, align 8, !tbaa !17
  %42 = load ptr, ptr %5, align 8, !tbaa !3
  %43 = getelementptr inbounds nuw %struct.mbedtls_mpi, ptr %42, i32 0, i32 2
  %44 = load i16, ptr %43, align 2, !tbaa !10
  %45 = zext i16 %44 to i64
  %46 = load i64, ptr %8, align 8, !tbaa !15
  call void @mbedtls_mpi_core_cond_assign(ptr noundef %38, ptr noundef %41, i64 noundef %45, i64 noundef %46)
  call void @llvm.lifetime.start.p0(i64 8, ptr %9) #9
  %47 = load i64, ptr %8, align 8, !tbaa !15
  %48 = call i64 @mbedtls_ct_bool_not(i64 noundef %47)
  store i64 %48, ptr %9, align 8, !tbaa !15
  call void @llvm.lifetime.start.p0(i64 8, ptr %10) #9
  %49 = load ptr, ptr %5, align 8, !tbaa !3
  %50 = getelementptr inbounds nuw %struct.mbedtls_mpi, ptr %49, i32 0, i32 2
  %51 = load i16, ptr %50, align 2, !tbaa !10
  %52 = zext i16 %51 to i64
  store i64 %52, ptr %10, align 8, !tbaa !15
  br label %53

53:                                               ; preds = %75, %22
  %54 = load i64, ptr %10, align 8, !tbaa !15
  %55 = load ptr, ptr %4, align 8, !tbaa !3
  %56 = getelementptr inbounds nuw %struct.mbedtls_mpi, ptr %55, i32 0, i32 2
  %57 = load i16, ptr %56, align 2, !tbaa !10
  %58 = zext i16 %57 to i64
  %59 = icmp ult i64 %54, %58
  br i1 %59, label %61, label %60

60:                                               ; preds = %53
  call void @llvm.lifetime.end.p0(i64 8, ptr %10) #9
  br label %78

61:                                               ; preds = %53
  %62 = load i64, ptr %9, align 8, !tbaa !15
  %63 = load ptr, ptr %4, align 8, !tbaa !3
  %64 = getelementptr inbounds nuw %struct.mbedtls_mpi, ptr %63, i32 0, i32 0
  %65 = load ptr, ptr %64, align 8, !tbaa !17
  %66 = load i64, ptr %10, align 8, !tbaa !15
  %67 = getelementptr inbounds nuw i64, ptr %65, i64 %66
  %68 = load i64, ptr %67, align 8, !tbaa !15
  %69 = call i64 @mbedtls_ct_mpi_uint_if_else_0(i64 noundef %62, i64 noundef %68)
  %70 = load ptr, ptr %4, align 8, !tbaa !3
  %71 = getelementptr inbounds nuw %struct.mbedtls_mpi, ptr %70, i32 0, i32 0
  %72 = load ptr, ptr %71, align 8, !tbaa !17
  %73 = load i64, ptr %10, align 8, !tbaa !15
  %74 = getelementptr inbounds nuw i64, ptr %72, i64 %73
  store i64 %69, ptr %74, align 8, !tbaa !15
  br label %75

75:                                               ; preds = %61
  %76 = load i64, ptr %10, align 8, !tbaa !15
  %77 = add i64 %76, 1
  store i64 %77, ptr %10, align 8, !tbaa !15
  br label %53, !llvm.loop !23

78:                                               ; preds = %60
  call void @llvm.lifetime.end.p0(i64 8, ptr %9) #9
  call void @llvm.lifetime.end.p0(i64 8, ptr %8) #9
  br label %79

79:                                               ; preds = %78, %19
  %80 = load i32, ptr %7, align 4, !tbaa !19
  call void @llvm.lifetime.end.p0(i64 4, ptr %7) #9
  ret i32 %80
}