; Function Attrs: nounwind uwtable
define hidden range(i32 -16, 1) i32 @mbedtls_mpi_safe_cond_assign(ptr noundef captures(none) %0, ptr noundef readonly captures(none) %1, i8 noundef zeroext %2) local_unnamed_addr #0 {
  %4 = getelementptr inbounds nuw i8, ptr %1, i64 10
  %5 = load i16, ptr %4, align 2, !tbaa !3
  %6 = zext i16 %5 to i64
  %7 = icmp ugt i16 %5, 10000
  br i1 %7, label %mbedtls_mpi_grow.exit, label %8

8:                                                ; preds = %3
  %9 = getelementptr inbounds nuw i8, ptr %0, i64 10
  %10 = load i16, ptr %9, align 2, !tbaa !3
  %11 = zext i16 %10 to i64
  %12 = icmp ugt i16 %5, %10
  br i1 %12, label %13, label %21

13:                                               ; preds = %8
  %14 = tail call noalias ptr @calloc(i64 noundef %6, i64 noundef 8) #17
  %15 = icmp eq ptr %14, null
  br i1 %15, label %mbedtls_mpi_grow.exit, label %16

16:                                               ; preds = %13
  %17 = load ptr, ptr %0, align 8, !tbaa !12
  %.not.i = icmp eq ptr %17, null
  br i1 %.not.i, label %20, label %18

18:                                               ; preds = %16
  %19 = shl nuw nsw i64 %11, 3
  tail call void @llvm.memcpy.p0.p0.i64(ptr nonnull align 8 %14, ptr nonnull align 8 %17, i64 %19, i1 false)
  tail call void @mbedtls_zeroize_and_free(ptr noundef nonnull %17, i64 noundef %19) #16
  br label %20

20:                                               ; preds = %18, %16
  store i16 %5, ptr %9, align 2, !tbaa !3
  store ptr %14, ptr %0, align 8, !tbaa !12
  br label %21

21:                                               ; preds = %20, %8
  %22 = zext i8 %2 to i64
  %23 = tail call i64 asm sideeffect "mov  $1, $0                                \0A\09neg  $0                                      \0A\09or   $1, $0                                \0A\09sar  $$63, $0                                 \0A\09", "=&{ax},{di},~{dirflag},~{fpsr},~{flags}"(i64 range(i64 0, 256) %22) #16, !srcloc !11
  %24 = getelementptr inbounds nuw i8, ptr %1, i64 8
  %25 = load i16, ptr %24, align 8, !tbaa !10
  %26 = getelementptr inbounds nuw i8, ptr %0, i64 8
  %27 = load i16, ptr %26, align 8, !tbaa !10
  %28 = sext i16 %25 to i64
  %29 = add nsw i64 %28, 1
  %30 = sext i16 %27 to i64
  %31 = add nsw i64 %30, 1
  %32 = and i64 %29, 4294967295
  %33 = and i64 %31, 4294967295
  %34 = tail call { i64, i64, i64 } asm sideeffect "and  $0, $1                      \0A\09not  $0                              \0A\09and  $0, $2                      \0A\09or   $1, $2                            \0A\09", "=&{di},=&{si},=&{ax},0,1,2,~{dirflag},~{fpsr},~{flags}"(i64 %23, i64 range(i64 0, 4294967296) %32, i64 range(i64 0, 4294967296) %33) #16, !srcloc !16
  %35 = extractvalue { i64, i64, i64 } %34, 2
  %36 = trunc i64 %35 to i16
  %37 = add i16 %36, -1
  store i16 %37, ptr %26, align 8, !tbaa !10
  %38 = load ptr, ptr %0, align 8, !tbaa !12
  %39 = load ptr, ptr %1, align 8, !tbaa !12
  %40 = load i16, ptr %4, align 2, !tbaa !3
  %41 = zext i16 %40 to i64
  tail call void @mbedtls_mpi_core_cond_assign(ptr noundef %38, ptr noundef %39, i64 noundef %41, i64 noundef %23) #16
  %42 = xor i64 %23, -1
  %43 = load i16, ptr %4, align 2, !tbaa !3
  %44 = load i16, ptr %9, align 2, !tbaa !3
  %45 = zext i16 %44 to i64
  %46 = icmp ult i16 %43, %44
  br i1 %46, label %.lr.ph, label %mbedtls_mpi_grow.exit

.lr.ph:                                           ; preds = %21
  %47 = zext i16 %43 to i64
  %48 = load ptr, ptr %0, align 8, !tbaa !12
  br label %49

49:                                               ; preds = %.lr.ph, %49
  %.025 = phi i64 [ %47, %.lr.ph ], [ %53, %49 ]
  %50 = getelementptr inbounds nuw i64, ptr %48, i64 %.025
  %51 = load i64, ptr %50, align 8, !tbaa !17
  %52 = and i64 %51, %42
  store i64 %52, ptr %50, align 8, !tbaa !17
  %53 = add nuw nsw i64 %.025, 1
  %exitcond.not = icmp eq i64 %53, %45
  br i1 %exitcond.not, label %mbedtls_mpi_grow.exit, label %49, !llvm.loop !19

mbedtls_mpi_grow.exit:                            ; preds = %49, %21, %13, %3
  %.0.i23 = phi i32 [ -16, %3 ], [ -16, %13 ], [ 0, %21 ], [ 0, %49 ]
  ret i32 %.0.i23
}